; ModuleID = '10/103.c'
source_filename = "10/103.c"
target datalayout = "e-m:e-p270:32:32-p271:32:32-p272:64:64-i64:64-f80:128-n8:16:32:64-S128"
target triple = "x86_64-pc-linux-gnu"

@.str = private unnamed_addr constant [3 x i8] c"%d\00", align 1

; Function Attrs: noinline nounwind uwtable
define dso_local i32 @aa(i32* %0, i32 %1, i32 %2, i32 %3, i32 %4) #0 {
  %6 = alloca i32, align 4
  %7 = alloca i32*, align 8
  %8 = alloca i32, align 4
  %9 = alloca i32, align 4
  %10 = alloca i32, align 4
  %11 = alloca i32, align 4
  %12 = alloca i32, align 4
  %13 = alloca i32, align 4
  %14 = alloca i32, align 4
  store i32* %0, i32** %7, align 8
  store i32 %1, i32* %8, align 4
  store i32 %2, i32* %9, align 4
  store i32 %3, i32* %10, align 4
  store i32 %4, i32* %11, align 4
  store i32 0, i32* %12, align 4
  store i32 0, i32* %13, align 4
  %15 = load i32, i32* %11, align 4
  %16 = load i32, i32* %9, align 4
  %17 = sub nsw i32 %16, 1
  %18 = icmp eq i32 %15, %17
  br i1 %18, label %19, label %30

19:                                               ; preds = %5
  %20 = load i32, i32* %10, align 4
  %21 = load i32*, i32** %7, align 8
  %22 = load i32, i32* %9, align 4
  %23 = sub nsw i32 %22, 1
  %24 = sext i32 %23 to i64
  %25 = getelementptr inbounds i32, i32* %21, i64 %24
  %26 = load i32, i32* %25, align 4
  %27 = icmp sge i32 %20, %26
  br i1 %27, label %28, label %29

28:                                               ; preds = %19
  store i32 1, i32* %6, align 4
  br label %70

29:                                               ; preds = %19
  store i32 0, i32* %6, align 4
  br label %70

30:                                               ; preds = %5
  %31 = load i32, i32* %11, align 4
  store i32 %31, i32* %14, align 4
  br label %32

32:                                               ; preds = %65, %30
  %33 = load i32, i32* %14, align 4
  %34 = load i32, i32* %9, align 4
  %35 = icmp slt i32 %33, %34
  br i1 %35, label %36, label %68

36:                                               ; preds = %32
  %37 = load i32*, i32** %7, align 8
  %38 = load i32, i32* %14, align 4
  %39 = sext i32 %38 to i64
  %40 = getelementptr inbounds i32, i32* %37, i64 %39
  %41 = load i32, i32* %40, align 4
  %42 = load i32, i32* %10, align 4
  %43 = icmp sle i32 %41, %42
  br i1 %43, label %44, label %64

44:                                               ; preds = %36
  %45 = load i32*, i32** %7, align 8
  %46 = load i32, i32* %8, align 4
  %47 = add nsw i32 %46, 1
  %48 = load i32, i32* %9, align 4
  %49 = load i32*, i32** %7, align 8
  %50 = load i32, i32* %14, align 4
  %51 = sext i32 %50 to i64
  %52 = getelementptr inbounds i32, i32* %49, i64 %51
  %53 = load i32, i32* %52, align 4
  %54 = load i32, i32* %14, align 4
  %55 = add nsw i32 %54, 1
  %56 = call i32 @aa(i32* %45, i32 %47, i32 %48, i32 %53, i32 %55)
  %57 = add nsw i32 %56, 1
  store i32 %57, i32* %13, align 4
  %58 = load i32, i32* %13, align 4
  %59 = load i32, i32* %12, align 4
  %60 = icmp sgt i32 %58, %59
  br i1 %60, label %61, label %63

61:                                               ; preds = %44
  %62 = load i32, i32* %13, align 4
  store i32 %62, i32* %12, align 4
  br label %63

63:                                               ; preds = %61, %44
  br label %64

64:                                               ; preds = %63, %36
  br label %65

65:                                               ; preds = %64
  %66 = load i32, i32* %14, align 4
  %67 = add nsw i32 %66, 1
  store i32 %67, i32* %14, align 4
  br label %32

68:                                               ; preds = %32
  %69 = load i32, i32* %12, align 4
  store i32 %69, i32* %6, align 4
  br label %70

70:                                               ; preds = %68, %29, %28
  %71 = load i32, i32* %6, align 4
  ret i32 %71
}

; Function Attrs: noinline nounwind uwtable
define dso_local void @main() #0 {
  %1 = alloca i32, align 4
  %2 = alloca [25 x i32], align 16
  %3 = alloca i32, align 4
  %4 = call i32 (i8*, ...) @__isoc99_scanf(i8* getelementptr inbounds ([3 x i8], [3 x i8]* @.str, i64 0, i64 0), i32* %3)
  store i32 0, i32* %1, align 4
  br label %5

5:                                                ; preds = %14, %0
  %6 = load i32, i32* %1, align 4
  %7 = load i32, i32* %3, align 4
  %8 = icmp slt i32 %6, %7
  br i1 %8, label %9, label %17

9:                                                ; preds = %5
  %10 = load i32, i32* %1, align 4
  %11 = sext i32 %10 to i64
  %12 = getelementptr inbounds [25 x i32], [25 x i32]* %2, i64 0, i64 %11
  %13 = call i32 (i8*, ...) @__isoc99_scanf(i8* getelementptr inbounds ([3 x i8], [3 x i8]* @.str, i64 0, i64 0), i32* %12)
  br label %14

14:                                               ; preds = %9
  %15 = load i32, i32* %1, align 4
  %16 = add nsw i32 %15, 1
  store i32 %16, i32* %1, align 4
  br label %5

17:                                               ; preds = %5
  %18 = getelementptr inbounds [25 x i32], [25 x i32]* %2, i64 0, i64 0
  %19 = load i32, i32* %3, align 4
  %20 = call i32 @aa(i32* %18, i32 0, i32 %19, i32 32767, i32 0)
  %21 = call i32 (i8*, ...) @printf(i8* getelementptr inbounds ([3 x i8], [3 x i8]* @.str, i64 0, i64 0), i32 %20)
  ret void
}

declare dso_local i32 @__isoc99_scanf(i8*, ...) #1

declare dso_local i32 @printf(i8*, ...) #1


!llvm.module.flags = !{!0}
!llvm.ident = !{!1}

!0 = !{i32 1, !"wchar_size", i32 4}
!1 = !{!"clang version 10.0.0-4ubuntu1 "}
